target datalayout = "e-m:e-p270:32:32-p271:32:32-p272:64:64-i64:64-i128:128-f80:128-n8:16:32:64-S128"
target triple = "x86_64-pc-linux-gnu"

%"struct.vcpkg::StringView" = type { ptr, i64 }
%"struct.vcpkg::Version" = type <{ %"class.std::__cxx11::basic_string", i32, [4 x i8] }>
%"class.std::__cxx11::basic_string" = type { %"struct.std::__cxx11::basic_string<char>::_Alloc_hider", i64, %union.anon }
%"struct.std::__cxx11::basic_string<char>::_Alloc_hider" = type { ptr }
%union.anon = type { i64, [8 x i8] }
%"class.std::allocator" = type { i8 }

; Function Attrs: mustprogress nounwind uwtable
define linkonce_odr dso_local noundef i64 @_ZNK5vcpkg10StringView4sizeEv(ptr noundef nonnull align 8 dereferenceable(16) %0) #0 comdat align 2 {
  %2 = alloca ptr, align 8
  store ptr %0, ptr %2, align 8
  %3 = load ptr, ptr %2, align 8
  %4 = getelementptr inbounds %"struct.vcpkg::StringView", ptr %3, i32 0, i32 1
  %5 = load i64, ptr %4, align 8
  ret i64 %5
}

; Function Attrs: mustprogress nounwind uwtable
define linkonce_odr dso_local noundef ptr @_ZNK5vcpkg10StringView4dataEv(ptr noundef nonnull align 8 dereferenceable(16) %0) #0 comdat align 2 {
  %2 = alloca ptr, align 8
  store ptr %0, ptr %2, align 8
  %3 = load ptr, ptr %2, align 8
  %4 = getelementptr inbounds %"struct.vcpkg::StringView", ptr %3, i32 0, i32 0
  %5 = load ptr, ptr %4, align 8
  ret ptr %5
}

; Function Attrs: mustprogress uwtable
define dso_local void @_ZN5vcpkg7VersionC2ENS_10StringViewEi(ptr noundef nonnull align 8 dereferenceable(36) %0, ptr %1, i64 %2, i32 noundef %3) unnamed_addr #2 align 2 personality ptr @__gxx_personality_v0 {
  %5 = alloca %"struct.vcpkg::StringView", align 8
  %6 = alloca ptr, align 8
  %7 = alloca i32, align 4
  %8 = alloca %"class.std::allocator", align 1
  %9 = alloca ptr, align 8
  %10 = alloca i32, align 4
  %11 = getelementptr inbounds { ptr, i64 }, ptr %5, i32 0, i32 0
  store ptr %1, ptr %11, align 8
  %12 = getelementptr inbounds { ptr, i64 }, ptr %5, i32 0, i32 1
  store i64 %2, ptr %12, align 8
  store ptr %0, ptr %6, align 8
  store i32 %3, ptr %7, align 4
  %13 = load ptr, ptr %6, align 8
  %14 = getelementptr inbounds %"struct.vcpkg::Version", ptr %13, i32 0, i32 0
  %15 = call noundef ptr @_ZNK5vcpkg10StringView4dataEv(ptr noundef nonnull align 8 dereferenceable(16) %5) #13
  %16 = call noundef i64 @_ZNK5vcpkg10StringView4sizeEv(ptr noundef nonnull align 8 dereferenceable(16) %5) #13
  call void @_ZNSaIcEC1Ev(ptr noundef nonnull align 1 dereferenceable(1) %8) #13
  invoke void @_ZNSt7__cxx1112basic_stringIcSt11char_traitsIcESaIcEEC1EPKcmRKS3_(ptr noundef nonnull align 8 dereferenceable(32) %14, ptr noundef %15, i64 noundef %16, ptr noundef nonnull align 1 dereferenceable(1) %8)
          to label %17 unwind label %20

17:                                               ; preds = %4
  call void @_ZNSaIcED1Ev(ptr noundef nonnull align 1 dereferenceable(1) %8) #13
  %18 = getelementptr inbounds %"struct.vcpkg::Version", ptr %13, i32 0, i32 1
  %19 = load i32, ptr %7, align 4
  store i32 %19, ptr %18, align 8
  ret void

20:                                               ; preds = %4
  %21 = landingpad { ptr, i32 }
          cleanup
  %22 = extractvalue { ptr, i32 } %21, 0
  store ptr %22, ptr %9, align 8
  %23 = extractvalue { ptr, i32 } %21, 1
  store i32 %23, ptr %10, align 4
  call void @_ZNSaIcED1Ev(ptr noundef nonnull align 1 dereferenceable(1) %8) #13
  br label %24

24:                                               ; preds = %20
  %25 = load ptr, ptr %9, align 8
  %26 = load i32, ptr %10, align 4
  %27 = insertvalue { ptr, i32 } poison, ptr %25, 0
  %28 = insertvalue { ptr, i32 } %27, i32 %26, 1
  resume { ptr, i32 } %28
}